; Function Attrs: nounwind uwtable
define dso_local noundef i64 @inet_in(ptr noundef readonly captures(none) %0) local_unnamed_addr #0 {
  %2 = getelementptr inbounds nuw i8, ptr %0, i64 32
  %3 = load i64, ptr %2, align 8
  %4 = inttoptr i64 %3 to ptr
  %5 = getelementptr inbounds nuw i8, ptr %0, i64 8
  %6 = load ptr, ptr %5, align 8
  %7 = tail call fastcc ptr @network_in(ptr noundef %4, i1 noundef zeroext false, ptr noundef %6)
  %8 = ptrtoint ptr %7 to i64
  ret i64 %8
}